target datalayout = "e-m:e-p270:32:32-p271:32:32-p272:64:64-i64:64-i128:128-f80:128-n8:16:32:64-S128"
target triple = "x86_64-pc-linux-gnu"

; Function Attrs: nounwind uwtable
define internal i32 @no_sub_motion_search(ptr noundef %0, ptr noundef %1, ptr noundef %2, i32 noundef %3, i32 noundef %4, i32 noundef %5, i32 noundef %6, i32 noundef %7) #0 {
  %9 = alloca ptr, align 8
  %10 = alloca ptr, align 8
  %11 = alloca ptr, align 8
  %12 = alloca i32, align 4
  %13 = alloca i32, align 4
  %14 = alloca i32, align 4
  %15 = alloca i32, align 4
  %16 = alloca i32, align 4
  store ptr %0, ptr %9, align 8, !tbaa !4
  store ptr %1, ptr %10, align 8, !tbaa !20
  store ptr %2, ptr %11, align 8, !tbaa !20
  store i32 %3, ptr %12, align 4, !tbaa !9
  store i32 %4, ptr %13, align 4, !tbaa !9
  store i32 %5, ptr %14, align 4, !tbaa !9
  store i32 %6, ptr %15, align 4, !tbaa !9
  store i32 %7, ptr %16, align 4, !tbaa !9
  %17 = load ptr, ptr %10, align 8, !tbaa !20
  %18 = load i32, ptr %17, align 4, !tbaa !9
  %19 = mul nsw i32 %18, 2
  store i32 %19, ptr %17, align 4, !tbaa !9
  %20 = load ptr, ptr %11, align 8, !tbaa !20
  %21 = load i32, ptr %20, align 4, !tbaa !9
  %22 = mul nsw i32 %21, 2
  store i32 %22, ptr %20, align 4, !tbaa !9
  %23 = load i32, ptr %12, align 4, !tbaa !9
  ret i32 %23
}