; Function Attrs: mustprogress nofree norecurse nosync nounwind willreturn memory(argmem: readwrite) uwtable
define internal noundef i32 @no_sub_motion_search(ptr readnone captures(none) %0, ptr noundef captures(none) %1, ptr noundef captures(none) %2, i32 noundef returned %3, i32 %4, i32 %5, i32 %6, i32 %7) #6 {
  %9 = load i32, ptr %1, align 4, !tbaa !58
  %10 = shl nsw i32 %9, 1
  store i32 %10, ptr %1, align 4, !tbaa !58
  %11 = load i32, ptr %2, align 4, !tbaa !58
  %12 = shl nsw i32 %11, 1
  store i32 %12, ptr %2, align 4, !tbaa !58
  ret i32 %3
}